Certificate:
    Data:
        Version: 3 (0x2)
        Serial Number: 1 (0x1)
        Signature Algorithm: sha1WithRSAEncryption
        Issuer: C=TW, O=frankychen.net, OU=Certificate Authority, CN=frankychen.net Root CA X1
        Validity
            Not Before: Jun 11 13:19:22 2021 GMT
            Not After : Dec 31 23:59:59 2040 GMT
        Subject: C=TW, O=frankychen.net, OU=Certificate Authority, CN=frankychen.net Root CA X1
        Subject Public Key Info:
            Public Key Algorithm: rsaEncryption
                RSA Public-Key: (4096 bit)
                Modulus:
                    00:b1:6f:80:0c:85:8f:69:15:97:d4:c3:8f:42:61:
                    97:82:14:48:d6:ea:31:f2:0f:c1:aa:74:f5:b1:b9:
                    fd:46:32:2f:5d:10:4e:b4:40:0a:c1:2c:af:30:15:
                    9f:d8:aa:4e:f1:d6:de:06:c7:b2:f4:9f:f0:58:12:
                    df:9a:b2:e8:eb:cf:a5:8d:a6:2d:73:3b:59:57:84:
                    32:a9:e7:06:09:0f:12:7d:13:a7:26:68:50:e0:47:
                    2f:51:4e:73:6d:df:6e:77:94:f4:18:18:ef:24:45:
                    db:be:d8:6b:ca:a2:89:00:b3:86:58:ce:fc:e0:6a:
                    81:9f:9b:92:65:5c:92:3f:a7:64:ce:3c:4e:06:cc:
                    1a:c6:ee:9b:f6:2b:6a:4b:55:46:94:2b:74:3c:22:
                    48:32:c9:38:ec:48:bd:de:fa:b5:a0:f1:25:ba:87:
                    78:aa:fc:59:c5:ed:84:eb:fc:81:f2:03:15:67:5b:
                    ea:b8:5d:ba:4d:ee:ad:98:c4:52:69:75:09:a6:cf:
                    ab:13:3b:07:a8:79:56:78:df:26:27:01:a3:5b:a8:
                    dc:7d:25:98:73:84:88:e3:70:90:b6:42:8b:f9:99:
                    79:b2:99:5a:99:94:d2:29:45:d0:20:fe:8e:d3:19:
                    85:74:de:6b:7c:f1:ad:30:33:99:82:03:6b:3a:ca:
                    8b:ec:55:59:01:92:bc:d1:9d:cf:d5:3c:5e:79:98:
                    8e:1b:c8:2e:49:52:93:91:53:a5:ec:f3:35:a1:58:
                    5c:40:3c:92:3d:8e:10:f1:ac:1f:3e:73:85:bf:e8:
                    3b:97:eb:0f:39:05:bf:a8:a2:7b:69:80:79:26:91:
                    ec:70:11:8b:f0:37:5c:57:ee:d2:39:c6:23:48:58:
                    f3:a4:f0:23:78:da:e9:a3:63:0c:09:dc:00:85:88:
                    29:9a:01:99:e8:8b:0a:f8:6f:a5:0e:23:7b:6b:2a:
                    95:de:b9:6a:95:e9:63:cf:f0:bc:26:f7:bd:ad:7a:
                    89:13:04:88:d0:6a:e1:93:0c:79:89:3e:38:78:c4:
                    e3:fc:6e:d4:02:49:bf:f2:b7:24:92:aa:dd:7f:d0:
                    22:76:53:40:26:ae:b6:8d:59:78:36:1a:9c:28:7c:
                    a3:22:eb:ac:6d:d6:77:0b:da:b9:ae:0d:65:72:20:
                    56:cd:62:43:3c:77:4e:bf:cf:c5:d5:f9:9c:09:1f:
                    85:47:2a:e7:0a:56:95:53:3f:0f:70:ff:7a:8b:6a:
                    12:b6:2b:4c:8d:81:6d:e9:88:d2:89:86:c9:e5:db:
                    4a:51:4c:74:1b:66:82:e9:7c:ea:c6:55:71:23:60:
                    a5:a1:a8:e1:3a:27:73:7d:4b:59:08:55:83:7e:6d:
                    3a:d9:d7
                Exponent: 65537 (0x10001)
        X509v3 extensions:
            X509v3 Key Usage: critical
                Certificate Sign, CRL Sign
            X509v3 Basic Constraints: critical
                CA:TRUE
            X509v3 Subject Key Identifier: 
                D4:F5:B2:9D:37:A1:EA:D0:43:B2:BF:ED:05:DF:60:66:72:C0:54:20
            X509v3 Authority Key Identifier: 
                keyid:D4:F5:B2:9D:37:A1:EA:D0:43:B2:BF:ED:05:DF:60:66:72:C0:54:20

    Signature Algorithm: sha1WithRSAEncryption
         14:ab:0b:84:c5:24:8c:35:f5:6e:6f:ac:8b:6f:b4:2d:67:84:
         1b:44:c0:63:83:8c:42:8b:92:d1:d3:5a:75:08:3c:57:69:b1:
         36:5c:00:dd:ea:72:78:53:82:57:cc:2f:f5:42:ac:73:f9:03:
         39:6b:b2:47:22:85:70:b6:8e:39:0d:49:f6:11:16:18:06:70:
         15:7e:5d:e9:4e:3d:23:f1:26:73:2a:2f:65:9e:ec:2b:48:57:
         6b:14:03:15:ed:7a:12:39:d6:3c:d0:da:a4:02:a8:e9:b3:a2:
         fc:72:66:57:b2:6e:85:02:0c:7e:a2:79:52:3b:1a:6c:26:07:
         66:79:a0:4e:70:f0:70:3b:c2:5a:16:9d:30:be:1a:a8:e1:d4:
         be:57:31:86:41:cd:79:44:f3:a7:f2:cb:47:3a:d9:6e:d8:0f:
         b7:a0:db:3c:40:d5:c6:bc:e0:59:83:42:31:16:ed:49:de:a5:
         2a:88:9f:f3:04:13:72:9b:58:82:34:1f:53:dd:13:cc:73:79:
         b8:93:9b:3f:23:ba:e4:61:8c:23:c8:dd:3f:7b:4d:e1:2b:1e:
         c1:fb:95:71:9d:97:79:34:6d:57:76:d6:c7:59:42:3f:7d:37:
         15:1c:1b:1d:98:77:6a:93:73:35:c9:c4:48:42:3f:d6:74:e8:
         dc:6d:17:bf:ec:67:64:20:a2:fe:dc:ac:fb:88:47:37:5b:8a:
         85:a6:5d:2d:97:4a:cb:c8:fc:9b:96:ff:43:8d:4f:40:1a:a3:
         b9:a4:6a:ea:92:db:16:f0:9f:5a:0d:f4:b1:7a:6d:c5:2e:e8:
         73:dc:f8:a1:3e:a7:9e:ce:83:3b:06:36:4b:b0:60:5e:d3:65:
         2e:63:89:08:4b:c8:34:09:59:69:c0:e0:35:81:f4:4e:d8:9b:
         dc:b4:2c:fc:a5:ed:50:83:f1:cc:90:ea:4a:d5:a5:a2:07:c4:
         45:92:dd:0a:ca:0e:b7:ca:60:4b:6d:ba:b6:19:1c:10:b2:68:
         5c:eb:ef:af:52:3b:c4:18:dd:de:8b:db:ba:e7:70:6f:9d:ab:
         0b:e6:ab:0a:bb:fe:8c:24:2f:76:d6:ee:82:51:d8:53:aa:2d:
         b6:8a:09:86:6c:4f:69:cc:5a:d2:2c:50:82:5f:a1:d9:cf:7f:
         81:e4:00:56:46:be:79:e5:01:14:6b:6e:bf:11:68:17:9b:65:
         46:cf:3d:56:67:57:56:20:62:2b:fc:8f:dd:f0:a7:b4:79:14:
         2f:c1:0d:cc:5f:9e:41:49:69:e4:9e:5e:a6:42:84:9d:57:a1:
         21:58:20:3f:52:9e:47:a6:c1:b3:e1:cd:85:4c:f7:10:de:3b:
         45:49:43:9d:39:8c:67:c9
-----BEGIN CERTIFICATE-----
MIIFsjCCA5qgAwIBAgIBATANBgkqhkiG9w0BAQUFADBqMQswCQYDVQQGEwJUVzEX
MBUGA1UECgwOZnJhbmt5Y2hlbi5uZXQxHjAcBgNVBAsMFUNlcnRpZmljYXRlIEF1
dGhvcml0eTEiMCAGA1UEAwwZZnJhbmt5Y2hlbi5uZXQgUm9vdCBDQSBYMTAeFw0y
MTA2MTExMzE5MjJaFw00MDEyMzEyMzU5NTlaMGoxCzAJBgNVBAYTAlRXMRcwFQYD
VQQKDA5mcmFua3ljaGVuLm5ldDEeMBwGA1UECwwVQ2VydGlmaWNhdGUgQXV0aG9y
aXR5MSIwIAYDVQQDDBlmcmFua3ljaGVuLm5ldCBSb290IENBIFgxMIICIjANBgkq
hkiG9w0BAQEFAAOCAg8AMIICCgKCAgEAsW+ADIWPaRWX1MOPQmGXghRI1uox8g/B
qnT1sbn9RjIvXRBOtEAKwSyvMBWf2KpO8dbeBsey9J/wWBLfmrLo68+ljaYtcztZ
V4QyqecGCQ8SfROnJmhQ4EcvUU5zbd9ud5T0GBjvJEXbvthryqKJALOGWM784GqB
n5uSZVySP6dkzjxOBswaxu6b9itqS1VGlCt0PCJIMsk47Ei93vq1oPEluod4qvxZ
xe2E6/yB8gMVZ1vquF26Te6tmMRSaXUJps+rEzsHqHlWeN8mJwGjW6jcfSWYc4SI
43CQtkKL+Zl5splamZTSKUXQIP6O0xmFdN5rfPGtMDOZggNrOsqL7FVZAZK80Z3P
1TxeeZiOG8guSVKTkVOl7PM1oVhcQDySPY4Q8awfPnOFv+g7l+sPOQW/qKJ7aYB5
JpHscBGL8DdcV+7SOcYjSFjzpPAjeNrpo2MMCdwAhYgpmgGZ6IsK+G+lDiN7ayqV
3rlqleljz/C8Jve9rXqJEwSI0Grhkwx5iT44eMTj/G7UAkm/8rckkqrdf9AidlNA
Jq62jVl4NhqcKHyjIuusbdZ3C9q5rg1lciBWzWJDPHdOv8/F1fmcCR+FRyrnClaV
Uz8PcP96i2oStitMjYFt6YjSiYbJ5dtKUUx0G2aC6XzqxlVxI2CloajhOidzfUtZ
CFWDfm062dcCAwEAAaNjMGEwDgYDVR0PAQH/BAQDAgEGMA8GA1UdEwEB/wQFMAMB
Af8wHQYDVR0OBBYEFNT1sp03oerQQ7K/7QXfYGZywFQgMB8GA1UdIwQYMBaAFNT1
sp03oerQQ7K/7QXfYGZywFQgMA0GCSqGSIb3DQEBBQUAA4ICAQAUqwuExSSMNfVu
b6yLb7QtZ4QbRMBjg4xCi5LR01p1CDxXabE2XADd6nJ4U4JXzC/1Qqxz+QM5a7JH
IoVwto45DUn2ERYYBnAVfl3pTj0j8SZzKi9lnuwrSFdrFAMV7XoSOdY80NqkAqjp
s6L8cmZXsm6FAgx+onlSOxpsJgdmeaBOcPBwO8JaFp0wvhqo4dS+VzGGQc15RPOn
8stHOtlu2A+3oNs8QNXGvOBZg0IxFu1J3qUqiJ/zBBNym1iCNB9T3RPMc3m4k5s/
I7rkYYwjyN0/e03hKx7B+5VxnZd5NG1XdtbHWUI/fTcVHBsdmHdqk3M1ycRIQj/W
dOjcbRe/7GdkIKL+3Kz7iEc3W4qFpl0tl0rLyPyblv9DjU9AGqO5pGrqktsW8J9a
DfSxem3FLuhz3PihPqeezoM7BjZLsGBe02UuY4kIS8g0CVlpwOA1gfRO2JvctCz8
pe1Qg/HMkOpK1aWiB8RFkt0Kyg63ymBLbbq2GRwQsmhc6++vUjvEGN3ei9u653Bv
nasL5qsKu/6MJC921u6CUdhTqi22igmGbE9pzFrSLFCCX6HZz3+B5ABWRr555QEU
a26/EWgXm2VGzz1WZ1dWIGIr/I/d8Ke0eRQvwQ3MX55BSWnknl6mQoSdV6EhWCA/
Up5HpsGz4c2FTPcQ3jtFSUOdOYxnyQ==
-----END CERTIFICATE-----
